; Function Attrs: mustprogress uwtable
define hidden void @_ZN4lean11mk_rec_nameERKNS_4nameE(ptr dead_on_unwind noalias writable sret(%"class.lean::name") align 8 %0, ptr noundef nonnull align 8 dereferenceable(8) %1) local_unnamed_addr #0 personality ptr @__gxx_personality_v0 {
  %3 = alloca %"class.lean::name", align 8
  %4 = alloca %"class.lean::name", align 8
  call void @llvm.lifetime.start.p0(i64 8, ptr nonnull %4) #16
  call void @llvm.lifetime.start.p0(i64 8, ptr nonnull %3) #16
  store ptr inttoptr (i64 1 to ptr), ptr %3, align 8, !tbaa !3
  invoke void @_ZN4lean4nameC2ERKS0_PKc(ptr noundef nonnull align 8 dereferenceable(8) %4, ptr noundef nonnull align 8 dereferenceable(8) %3, ptr noundef nonnull @.str)
          to label %5 unwind label %19

5:                                                ; preds = %2
  %6 = load ptr, ptr %3, align 8, !tbaa !3
  %7 = ptrtoint ptr %6 to i64
  %8 = and i64 %7, 1
  %.not.i.i.i = icmp eq i64 %8, 0
  br i1 %.not.i.i.i, label %9, label %_ZN4lean4nameC2EPKc.exit

9:                                                ; preds = %5
  %10 = load i32, ptr %6, align 4, !tbaa !8
  %11 = icmp sgt i32 %10, 1
  br i1 %11, label %12, label %14, !prof !11

12:                                               ; preds = %9
  %13 = add nsw i32 %10, -1
  store i32 %13, ptr %6, align 4, !tbaa !8
  br label %_ZN4lean4nameC2EPKc.exit

14:                                               ; preds = %9
  %.not.i.i.i.i = icmp eq i32 %10, 0
  br i1 %.not.i.i.i.i, label %_ZN4lean4nameC2EPKc.exit, label %15

15:                                               ; preds = %14
  invoke void @lean_dec_ref_cold(ptr noundef nonnull %6)
          to label %_ZN4lean4nameC2EPKc.exit unwind label %16

16:                                               ; preds = %15
  %17 = landingpad { ptr, i32 }
          catch ptr null
  %18 = extractvalue { ptr, i32 } %17, 0
  call void @__clang_call_terminate(ptr %18) #17
  unreachable

common.resume:                                    ; preds = %35, %19
  %common.resume.op = phi { ptr, i32 } [ %20, %19 ], [ %36, %35 ]
  resume { ptr, i32 } %common.resume.op

19:                                               ; preds = %2
  %20 = landingpad { ptr, i32 }
          cleanup
  call void @_ZN4lean10object_refD2Ev(ptr noundef nonnull align 8 dereferenceable(8) %3) #16
  call void @llvm.lifetime.end.p0(i64 8, ptr nonnull %3) #16
  br label %common.resume

_ZN4lean4nameC2EPKc.exit:                         ; preds = %5, %12, %14, %15
  call void @llvm.lifetime.end.p0(i64 8, ptr nonnull %3) #16
  invoke void @_ZN4leanplERKNS_4nameES2_(ptr dead_on_unwind writable sret(%"class.lean::name") align 8 %0, ptr noundef nonnull align 8 dereferenceable(8) %1, ptr noundef nonnull align 8 dereferenceable(8) %4)
          to label %21 unwind label %35

21:                                               ; preds = %_ZN4lean4nameC2EPKc.exit
  %22 = load ptr, ptr %4, align 8, !tbaa !3
  %23 = ptrtoint ptr %22 to i64
  %24 = and i64 %23, 1
  %.not.i.i = icmp eq i64 %24, 0
  br i1 %.not.i.i, label %25, label %_ZN4lean10object_refD2Ev.exit

25:                                               ; preds = %21
  %26 = load i32, ptr %22, align 4, !tbaa !8
  %27 = icmp sgt i32 %26, 1
  br i1 %27, label %28, label %30, !prof !11

28:                                               ; preds = %25
  %29 = add nsw i32 %26, -1
  store i32 %29, ptr %22, align 4, !tbaa !8
  br label %_ZN4lean10object_refD2Ev.exit

30:                                               ; preds = %25
  %.not.i.i.i2 = icmp eq i32 %26, 0
  br i1 %.not.i.i.i2, label %_ZN4lean10object_refD2Ev.exit, label %31

31:                                               ; preds = %30
  invoke void @lean_dec_ref_cold(ptr noundef nonnull %22)
          to label %_ZN4lean10object_refD2Ev.exit unwind label %32

32:                                               ; preds = %31
  %33 = landingpad { ptr, i32 }
          catch ptr null
  %34 = extractvalue { ptr, i32 } %33, 0
  call void @__clang_call_terminate(ptr %34) #17
  unreachable

_ZN4lean10object_refD2Ev.exit:                    ; preds = %21, %28, %30, %31
  call void @llvm.lifetime.end.p0(i64 8, ptr nonnull %4) #16
  ret void

35:                                               ; preds = %_ZN4lean4nameC2EPKc.exit
  %36 = landingpad { ptr, i32 }
          cleanup
  call void @_ZN4lean10object_refD2Ev(ptr noundef nonnull align 8 dereferenceable(8) %4) #16
  call void @llvm.lifetime.end.p0(i64 8, ptr nonnull %4) #16
  br label %common.resume
}